target datalayout = "e-m:e-p270:32:32-p271:32:32-p272:64:64-i64:64-i128:128-f80:128-n8:16:32:64-S128"
target triple = "x86_64-pc-linux-gnu"

%class.MarkedFileReader = type { %class.FileReader, i64 }
%class.FileReader = type { ptr, ptr }
%"class.DwarfFile::MarkedDwarfFileReader" = type { %class.MarkedFileReader, i64, i64 }
%"class.DwarfFile::LineNumberProgram" = type <{ ptr, %"class.DwarfFile::MarkedDwarfFileReader", %"struct.DwarfFile::LineNumberProgram::LineNumberProgramHeader", ptr, i32, [4 x i8], i64, i8, [7 x i8] }>
%"struct.DwarfFile::LineNumberProgram::LineNumberProgramHeader" = type { i32, i16, i32, i8, i8, i8, i8, i8, i8, [12 x i8], i64 }

@.str.10 = private unnamed_addr constant [3 x i8] c"%s\00", align 1
@.str.17 = private unnamed_addr constant [11 x i8] c"<OVERFLOW>\00", align 1

; Function Attrs: mustprogress nounwind uwtable
define hidden noundef zeroext i1 @_ZN10FileReader4readEPvm(ptr noundef nonnull align 8 dereferenceable(16) %0, ptr noundef %1, i64 noundef %2) #1 align 2 {
  %4 = alloca ptr, align 8
  %5 = alloca ptr, align 8
  %6 = alloca i64, align 8
  store ptr %0, ptr %4, align 8
  store ptr %1, ptr %5, align 8
  store i64 %2, ptr %6, align 8
  %7 = load ptr, ptr %4, align 8
  %8 = load ptr, ptr %5, align 8
  %9 = load i64, ptr %6, align 8
  %10 = getelementptr inbounds %class.FileReader, ptr %7, i32 0, i32 1
  %11 = load ptr, ptr %10, align 8
  %12 = call i64 @fread(ptr noundef %8, i64 noundef %9, i64 noundef 1, ptr noundef %11)
  %13 = icmp eq i64 %12, 1
  ret i1 %13
}

; Function Attrs: mustprogress nounwind uwtable
define hidden void @_ZN9DwarfFile17LineNumberProgram27write_filename_for_overflowEPcm(ptr noundef %0, i64 noundef %1) #1 align 2 {
  %3 = alloca ptr, align 8
  %4 = alloca i64, align 8
  %5 = alloca i64, align 8
  store ptr %0, ptr %3, align 8
  store i64 %1, ptr %4, align 8
  store i64 11, ptr %5, align 8
  %6 = load i64, ptr %4, align 8
  %7 = icmp ule i64 11, %6
  br i1 %7, label %8, label %11

8:                                                ; preds = %2
  %9 = load ptr, ptr %3, align 8
  %10 = call i32 (ptr, i64, ptr, ...) @jio_snprintf(ptr noundef %9, i64 noundef 11, ptr noundef @.str.10, ptr noundef @.str.17)
  br label %16

11:                                               ; preds = %2
  %12 = load ptr, ptr %3, align 8
  %13 = getelementptr inbounds i8, ptr %12, i64 0
  store i8 76, ptr %13, align 1
  %14 = load ptr, ptr %3, align 8
  %15 = getelementptr inbounds i8, ptr %14, i64 1
  store i8 0, ptr %15, align 1
  br label %16

16:                                               ; preds = %11, %8
  ret void
}

; Function Attrs: mustprogress nounwind uwtable
define hidden noundef zeroext i1 @_ZN9DwarfFile21MarkedDwarfFileReader9read_byteEPv(ptr noundef nonnull align 8 dereferenceable(40) %0, ptr noundef %1) #1 align 2 {
  %3 = alloca ptr, align 8
  %4 = alloca ptr, align 8
  store ptr %0, ptr %3, align 8
  store ptr %1, ptr %4, align 8
  %5 = load ptr, ptr %3, align 8
  %6 = getelementptr inbounds %"class.DwarfFile::MarkedDwarfFileReader", ptr %5, i32 0, i32 1
  %7 = load i64, ptr %6, align 8
  %8 = add nsw i64 %7, 1
  store i64 %8, ptr %6, align 8
  %9 = load ptr, ptr %4, align 8
  %10 = call noundef zeroext i1 @_ZN10FileReader4readEPvm(ptr noundef nonnull align 8 dereferenceable(16) %5, ptr noundef %9, i64 noundef 1)
  ret i1 %10
}

; Function Attrs: mustprogress nounwind uwtable
define hidden noundef zeroext i1 @_ZNK9DwarfFile21MarkedDwarfFileReader14has_bytes_leftEv(ptr noundef nonnull align 8 dereferenceable(40) %0) #1 align 2 {
  %2 = alloca i1, align 1
  %3 = alloca ptr, align 8
  store ptr %0, ptr %3, align 8
  %4 = load ptr, ptr %3, align 8
  %5 = getelementptr inbounds %"class.DwarfFile::MarkedDwarfFileReader", ptr %4, i32 0, i32 2
  %6 = load i64, ptr %5, align 8
  %7 = icmp eq i64 %6, -1
  br i1 %7, label %8, label %9

8:                                                ; preds = %1
  store i1 false, ptr %2, align 1
  br label %15

9:                                                ; preds = %1
  %10 = getelementptr inbounds %"class.DwarfFile::MarkedDwarfFileReader", ptr %4, i32 0, i32 1
  %11 = load i64, ptr %10, align 8
  %12 = getelementptr inbounds %"class.DwarfFile::MarkedDwarfFileReader", ptr %4, i32 0, i32 2
  %13 = load i64, ptr %12, align 8
  %14 = icmp slt i64 %11, %13
  store i1 %14, ptr %2, align 1
  br label %15

15:                                               ; preds = %9, %8
  %16 = load i1, ptr %2, align 1
  ret i1 %16
}

; Function Attrs: mustprogress nounwind uwtable
define hidden noundef zeroext i1 @_ZN9DwarfFile21MarkedDwarfFileReader18read_non_null_charEPc(ptr noundef nonnull align 8 dereferenceable(40) %0, ptr noundef %1) #1 align 2 {
  %3 = alloca i1, align 1
  %4 = alloca ptr, align 8
  %5 = alloca ptr, align 8
  store ptr %0, ptr %4, align 8
  store ptr %1, ptr %5, align 8
  %6 = load ptr, ptr %4, align 8
  %7 = load ptr, ptr %5, align 8
  %8 = call noundef zeroext i1 @_ZN9DwarfFile21MarkedDwarfFileReader9read_byteEPv(ptr noundef nonnull align 8 dereferenceable(40) %6, ptr noundef %7)
  br i1 %8, label %10, label %9

9:                                                ; preds = %2
  store i1 false, ptr %3, align 1
  br label %15

10:                                               ; preds = %2
  %11 = load ptr, ptr %5, align 8
  %12 = load i8, ptr %11, align 1
  %13 = sext i8 %12 to i32
  %14 = icmp ne i32 %13, 0
  store i1 %14, ptr %3, align 1
  br label %15

15:                                               ; preds = %10, %9
  %16 = load i1, ptr %3, align 1
  ret i1 %16
}

; Function Attrs: mustprogress nounwind uwtable
define hidden noundef zeroext i1 @_ZN9DwarfFile17LineNumberProgram13read_filenameEPcm(ptr noundef nonnull align 8 dereferenceable(113) %0, ptr noundef %1, i64 noundef %2) #1 align 2 {
  %4 = alloca i1, align 1
  %5 = alloca ptr, align 8
  %6 = alloca ptr, align 8
  %7 = alloca i64, align 8
  %8 = alloca i8, align 1
  %9 = alloca i64, align 8
  %10 = alloca i8, align 1
  store ptr %0, ptr %5, align 8
  store ptr %1, ptr %6, align 8
  store i64 %2, ptr %7, align 8
  %11 = load ptr, ptr %5, align 8
  %12 = getelementptr inbounds %"class.DwarfFile::LineNumberProgram", ptr %11, i32 0, i32 1
  %13 = call noundef zeroext i1 @_ZN9DwarfFile21MarkedDwarfFileReader18read_non_null_charEPc(ptr noundef nonnull align 8 dereferenceable(40) %12, ptr noundef %8)
  br i1 %13, label %15, label %14

14:                                               ; preds = %3
  store i1 false, ptr %4, align 1
  br label %61

15:                                               ; preds = %3
  %16 = load i8, ptr %8, align 1
  %17 = load ptr, ptr %6, align 8
  %18 = getelementptr inbounds i8, ptr %17, i64 0
  store i8 %16, ptr %18, align 1
  store i64 1, ptr %9, align 8
  store i8 0, ptr %10, align 1
  br label %19

19:                                               ; preds = %53, %15
  %20 = load i8, ptr %8, align 1
  %21 = sext i8 %20 to i32
  %22 = icmp ne i32 %21, 0
  br i1 %22, label %23, label %26

23:                                               ; preds = %19
  %24 = getelementptr inbounds %"class.DwarfFile::LineNumberProgram", ptr %11, i32 0, i32 1
  %25 = call noundef zeroext i1 @_ZNK9DwarfFile21MarkedDwarfFileReader14has_bytes_leftEv(ptr noundef nonnull align 8 dereferenceable(40) %24)
  br label %26

26:                                               ; preds = %23, %19
  %27 = phi i1 [ false, %19 ], [ %25, %23 ]
  br i1 %27, label %28, label %54

28:                                               ; preds = %26
  %29 = getelementptr inbounds %"class.DwarfFile::LineNumberProgram", ptr %11, i32 0, i32 1
  %30 = call noundef zeroext i1 @_ZN9DwarfFile21MarkedDwarfFileReader9read_byteEPv(ptr noundef nonnull align 8 dereferenceable(40) %29, ptr noundef %8)
  br i1 %30, label %32, label %31

31:                                               ; preds = %28
  store i1 false, ptr %4, align 1
  br label %61

32:                                               ; preds = %28
  %33 = load i8, ptr %8, align 1
  %34 = sext i8 %33 to i32
  %35 = call noundef ptr @_ZN2os14file_separatorEv()
  %36 = load i8, ptr %35, align 1
  %37 = sext i8 %36 to i32
  %38 = icmp eq i32 %34, %37
  br i1 %38, label %39, label %40

39:                                               ; preds = %32
  store i64 0, ptr %9, align 8
  store i8 0, ptr %10, align 1
  br label %53

40:                                               ; preds = %32
  %41 = load i64, ptr %9, align 8
  %42 = load i64, ptr %7, align 8
  %43 = icmp eq i64 %41, %42
  br i1 %43, label %44, label %45

44:                                               ; preds = %40
  store i8 1, ptr %10, align 1
  br label %52

45:                                               ; preds = %40
  %46 = load i8, ptr %8, align 1
  %47 = load ptr, ptr %6, align 8
  %48 = load i64, ptr %9, align 8
  %49 = getelementptr inbounds i8, ptr %47, i64 %48
  store i8 %46, ptr %49, align 1
  %50 = load i64, ptr %9, align 8
  %51 = add i64 %50, 1
  store i64 %51, ptr %9, align 8
  br label %52

52:                                               ; preds = %45, %44
  br label %53

53:                                               ; preds = %52, %39
  br label %19, !llvm.loop !22

54:                                               ; preds = %26
  %55 = load i8, ptr %10, align 1
  %56 = trunc i8 %55 to i1
  br i1 %56, label %57, label %60

57:                                               ; preds = %54
  %58 = load ptr, ptr %6, align 8
  %59 = load i64, ptr %7, align 8
  call void @_ZN9DwarfFile17LineNumberProgram27write_filename_for_overflowEPcm(ptr noundef %58, i64 noundef %59)
  br label %60

60:                                               ; preds = %57, %54
  store i1 true, ptr %4, align 1
  br label %61

61:                                               ; preds = %60, %31, %14
  %62 = load i1, ptr %4, align 1
  ret i1 %62
}