; Function Attrs: mustprogress nounwind uwtable
define hidden noundef zeroext i1 @_ZN9DwarfFile17LineNumberProgram13read_filenameEPcm(ptr nocapture noundef nonnull align 8 dereferenceable(113) %0, ptr noundef %1, i64 noundef %2) local_unnamed_addr #0 align 2 {
  %4 = alloca i8, align 1
  %5 = getelementptr inbounds i8, ptr %0, i64 32
  %6 = load i64, ptr %5, align 8
  %7 = add nsw i64 %6, 1
  store i64 %7, ptr %5, align 8
  %8 = getelementptr inbounds i8, ptr %0, i64 16
  %9 = load ptr, ptr %8, align 8
  %10 = call i64 @fread(ptr noundef nonnull %4, i64 noundef 1, i64 noundef 1, ptr noundef %9)
  %11 = icmp eq i64 %10, 1
  %12 = load i8, ptr %4, align 1
  %13 = icmp ne i8 %12, 0
  %or.cond = select i1 %11, i1 %13, i1 false
  br i1 %or.cond, label %.lr.ph, label %_ZN9DwarfFile17LineNumberProgram27write_filename_for_overflowEPcm.exit

.lr.ph:                                           ; preds = %3
  store i8 %12, ptr %1, align 1
  %14 = getelementptr inbounds i8, ptr %0, i64 40
  br label %15

15:                                               ; preds = %.lr.ph, %35
  %.019 = phi i1 [ false, %.lr.ph ], [ %.1, %35 ]
  %.01018 = phi i64 [ 1, %.lr.ph ], [ %.111, %35 ]
  %16 = load i64, ptr %14, align 8
  %17 = icmp ne i64 %16, -1
  %18 = load i64, ptr %5, align 8
  %19 = icmp slt i64 %18, %16
  %.0.i13 = select i1 %17, i1 %19, i1 false
  br i1 %.0.i13, label %20, label %.critedge

20:                                               ; preds = %15
  %21 = add nsw i64 %18, 1
  store i64 %21, ptr %5, align 8
  %22 = load ptr, ptr %8, align 8
  %23 = call i64 @fread(ptr noundef nonnull %4, i64 noundef 1, i64 noundef 1, ptr noundef %22)
  %24 = icmp eq i64 %23, 1
  br i1 %24, label %25, label %_ZN9DwarfFile17LineNumberProgram27write_filename_for_overflowEPcm.exit

25:                                               ; preds = %20
  %26 = load i8, ptr %4, align 1
  %27 = tail call noundef ptr @_ZN2os14file_separatorEv() #15
  %28 = load i8, ptr %27, align 1
  %29 = icmp eq i8 %26, %28
  br i1 %29, label %35, label %30

30:                                               ; preds = %25
  %31 = icmp eq i64 %.01018, %2
  br i1 %31, label %35, label %32

32:                                               ; preds = %30
  %33 = getelementptr inbounds i8, ptr %1, i64 %.01018
  store i8 %26, ptr %33, align 1
  %34 = add i64 %.01018, 1
  br label %35

35:                                               ; preds = %30, %25, %32
  %.111 = phi i64 [ %34, %32 ], [ 0, %25 ], [ %2, %30 ]
  %.1 = phi i1 [ %.019, %32 ], [ false, %25 ], [ true, %30 ]
  %.not = icmp eq i8 %26, 0
  br i1 %.not, label %.critedge, label %15, !llvm.loop !23

.critedge:                                        ; preds = %15, %35
  %.0.lcssa = phi i1 [ %.1, %35 ], [ %.019, %15 ]
  br i1 %.0.lcssa, label %36, label %_ZN9DwarfFile17LineNumberProgram27write_filename_for_overflowEPcm.exit

36:                                               ; preds = %.critedge
  %37 = icmp ugt i64 %2, 10
  br i1 %37, label %38, label %40

38:                                               ; preds = %36
  %39 = tail call i32 (ptr, i64, ptr, ...) @jio_snprintf(ptr noundef nonnull %1, i64 noundef 11, ptr noundef nonnull @.str.10, ptr noundef nonnull @.str.17) #15
  br label %_ZN9DwarfFile17LineNumberProgram27write_filename_for_overflowEPcm.exit

40:                                               ; preds = %36
  store i8 76, ptr %1, align 1
  %41 = getelementptr inbounds i8, ptr %1, i64 1
  store i8 0, ptr %41, align 1
  br label %_ZN9DwarfFile17LineNumberProgram27write_filename_for_overflowEPcm.exit

_ZN9DwarfFile17LineNumberProgram27write_filename_for_overflowEPcm.exit: ; preds = %20, %3, %40, %38, %.critedge
  %.012 = phi i1 [ true, %.critedge ], [ true, %38 ], [ true, %40 ], [ false, %3 ], [ false, %20 ]
  ret i1 %.012
}